; Function Attrs: mustprogress nofree norecurse nosync nounwind willreturn memory(argmem: read) uwtable
define dso_local { <2 x float>, <2 x float> } @_ZNK45btReducedDeformableNodeRigidContactConstraint5getDvEPKN10btSoftBody4NodeE(ptr nocapture noundef nonnull readonly align 8 dereferenceable(448) %this, ptr nocapture readnone %node) unnamed_addr #11 align 2 {
entry:
  %m_total_normal_dv = getelementptr inbounds i8, ptr %this, i64 40
  %m_total_tangent_dv = getelementptr inbounds i8, ptr %this, i64 56
  %0 = load float, ptr %m_total_normal_dv, align 8
  %1 = load float, ptr %m_total_tangent_dv, align 8
  %add.i = fadd float %0, %1
  %arrayidx5.i = getelementptr inbounds i8, ptr %this, i64 44
  %arrayidx7.i = getelementptr inbounds i8, ptr %this, i64 60
  %2 = load <2 x float>, ptr %arrayidx5.i, align 4
  %3 = load <2 x float>, ptr %arrayidx7.i, align 4
  %4 = fadd <2 x float> %2, %3
  %retval.sroa.0.0.vec.insert.i = insertelement <2 x float> poison, float %add.i, i64 0
  %5 = shufflevector <2 x float> %retval.sroa.0.0.vec.insert.i, <2 x float> %4, <2 x i32> <i32 0, i32 2>
  %6 = shufflevector <2 x float> <float poison, float 0.000000e+00>, <2 x float> %4, <2 x i32> <i32 3, i32 1>
  %.fca.0.insert.i = insertvalue { <2 x float>, <2 x float> } poison, <2 x float> %5, 0
  %.fca.1.insert.i = insertvalue { <2 x float>, <2 x float> } %.fca.0.insert.i, <2 x float> %6, 1
  ret { <2 x float>, <2 x float> } %.fca.1.insert.i
}